; Function Attrs: mustprogress nofree norecurse nosync nounwind willreturn memory(read, inaccessiblemem: none) uwtable
define ptr @Cudd_ReadZddOne(ptr noundef readonly captures(none) %0, i32 noundef %1) local_unnamed_addr #4 {
  %3 = icmp slt i32 %1, 0
  br i1 %3, label %17, label %4

4:                                                ; preds = %2
  %5 = getelementptr inbounds nuw i8, ptr %0, i64 140
  %6 = load i32, ptr %5, align 4
  %7 = icmp slt i32 %1, %6
  br i1 %7, label %8, label %13

8:                                                ; preds = %4
  %9 = getelementptr inbounds nuw i8, ptr %0, i64 360
  %10 = load ptr, ptr %9, align 8
  %11 = zext nneg i32 %1 to i64
  %12 = getelementptr inbounds nuw ptr, ptr %10, i64 %11
  br label %15

13:                                               ; preds = %4
  %14 = getelementptr inbounds nuw i8, ptr %0, i64 40
  br label %15

15:                                               ; preds = %13, %8
  %.in = phi ptr [ %12, %8 ], [ %14, %13 ]
  %16 = load ptr, ptr %.in, align 8
  br label %17

17:                                               ; preds = %2, %15
  %.0 = phi ptr [ %16, %15 ], [ null, %2 ]
  ret ptr %.0
}